target datalayout = "e-m:e-p270:32:32-p271:32:32-p272:64:64-i64:64-i128:128-f80:128-n8:16:32:64-S128"
target triple = "x86_64-pc-linux-gnu"

%struct.strbuf = type { i64, i64, ptr }
%struct.object_id = type { [32 x i8], i32 }
%struct.option = type { i32, i32, ptr, ptr, ptr, ptr, i32, ptr, i64, ptr, i64, ptr }

@cmd_commit_tree.buffer = internal global %struct.strbuf { i64 0, i64 0, ptr @strbuf_slopbuf }, align 8
@.str = private unnamed_addr constant [7 x i8] c"parent\00", align 1
@.str.1 = private unnamed_addr constant [29 x i8] c"id of a parent commit object\00", align 1
@.str.2 = private unnamed_addr constant [8 x i8] c"message\00", align 1
@.str.3 = private unnamed_addr constant [15 x i8] c"commit message\00", align 1
@.str.4 = private unnamed_addr constant [5 x i8] c"file\00", align 1
@.str.5 = private unnamed_addr constant [34 x i8] c"read commit log message from file\00", align 1
@.str.6 = private unnamed_addr constant [9 x i8] c"gpg-sign\00", align 1
@sign_commit = internal global ptr null, align 8
@.str.7 = private unnamed_addr constant [7 x i8] c"key-id\00", align 1
@.str.8 = private unnamed_addr constant [16 x i8] c"GPG sign commit\00", align 1
@.str.9 = private unnamed_addr constant [1 x i8] zeroinitializer, align 1
@commit_tree_usage = internal constant [3 x ptr] [ptr @.str.21, ptr @.str.22, ptr null], align 16
@.str.10 = private unnamed_addr constant [27 x i8] c"must give exactly one tree\00", align 1
@the_repository = external global ptr, align 8
@.str.11 = private unnamed_addr constant [27 x i8] c"not a valid object name %s\00", align 1
@.str.12 = private unnamed_addr constant [32 x i8] c"git commit-tree: failed to read\00", align 1
@.str.13 = private unnamed_addr constant [4 x i8] c"%s\0A\00", align 1

; Function Attrs: inlinehint nounwind uwtable
define internal void @git_config(ptr noundef %0, ptr noundef %1) #3 {
  %3 = alloca ptr, align 8
  %4 = alloca ptr, align 8
  store ptr %0, ptr %3, align 8, !tbaa !40
  store ptr %1, ptr %4, align 8, !tbaa !40
  %5 = load ptr, ptr @the_repository, align 8, !tbaa !13
  %6 = load ptr, ptr %3, align 8, !tbaa !40
  %7 = load ptr, ptr %4, align 8, !tbaa !40
  call void @repo_config(ptr noundef %5, ptr noundef %6, ptr noundef %7)
  ret void
}

; Function Attrs: nounwind uwtable
define dso_local i32 @cmd_commit_tree(i32 noundef %0, ptr noundef %1, ptr noundef %2, ptr noundef %3) #0 {
  %5 = alloca i32, align 4
  %6 = alloca ptr, align 8
  %7 = alloca ptr, align 8
  %8 = alloca ptr, align 8
  %9 = alloca ptr, align 8
  %10 = alloca %struct.object_id, align 4
  %11 = alloca %struct.object_id, align 4
  %12 = alloca [5 x %struct.option], align 16
  %13 = alloca i32, align 4
  store i32 %0, ptr %5, align 4, !tbaa !4
  store ptr %1, ptr %6, align 8, !tbaa !8
  store ptr %2, ptr %7, align 8, !tbaa !11
  store ptr %3, ptr %8, align 8, !tbaa !13
  call void @llvm.lifetime.start.p0(i64 8, ptr %9) #8
  store ptr null, ptr %9, align 8, !tbaa !15
  call void @llvm.lifetime.start.p0(i64 36, ptr %10) #8
  call void @llvm.lifetime.start.p0(i64 36, ptr %11) #8
  call void @llvm.lifetime.start.p0(i64 440, ptr %12) #8
  %14 = getelementptr inbounds nuw %struct.option, ptr %12, i32 0, i32 0
  store i32 13, ptr %14, align 8, !tbaa !17
  %15 = getelementptr inbounds nuw %struct.option, ptr %12, i32 0, i32 1
  store i32 112, ptr %15, align 4, !tbaa !20
  %16 = getelementptr inbounds nuw %struct.option, ptr %12, i32 0, i32 2
  store ptr null, ptr %16, align 8, !tbaa !21
  %17 = getelementptr inbounds nuw %struct.option, ptr %12, i32 0, i32 3
  store ptr %9, ptr %17, align 8, !tbaa !22
  %18 = getelementptr inbounds nuw %struct.option, ptr %12, i32 0, i32 4
  store ptr @.str, ptr %18, align 8, !tbaa !23
  %19 = getelementptr inbounds nuw %struct.option, ptr %12, i32 0, i32 5
  store ptr @.str.1, ptr %19, align 8, !tbaa !24
  %20 = getelementptr inbounds nuw %struct.option, ptr %12, i32 0, i32 6
  store i32 4, ptr %20, align 8, !tbaa !25
  %21 = getelementptr i8, ptr %12, i64 44
  call void @llvm.memset.p0.i64(ptr align 4 %21, i8 0, i64 4, i1 false)
  %22 = getelementptr inbounds nuw %struct.option, ptr %12, i32 0, i32 7
  store ptr @parse_parent_arg_callback, ptr %22, align 8, !tbaa !26
  %23 = getelementptr inbounds nuw %struct.option, ptr %12, i32 0, i32 8
  store i64 0, ptr %23, align 8, !tbaa !27
  %24 = getelementptr inbounds nuw %struct.option, ptr %12, i32 0, i32 9
  store ptr null, ptr %24, align 8, !tbaa !28
  %25 = getelementptr inbounds nuw %struct.option, ptr %12, i32 0, i32 10
  store i64 0, ptr %25, align 8, !tbaa !29
  %26 = getelementptr inbounds nuw %struct.option, ptr %12, i32 0, i32 11
  store ptr null, ptr %26, align 8, !tbaa !30
  %27 = getelementptr inbounds %struct.option, ptr %12, i64 1
  %28 = getelementptr inbounds nuw %struct.option, ptr %27, i32 0, i32 0
  store i32 13, ptr %28, align 8, !tbaa !17
  %29 = getelementptr inbounds nuw %struct.option, ptr %27, i32 0, i32 1
  store i32 109, ptr %29, align 4, !tbaa !20
  %30 = getelementptr inbounds nuw %struct.option, ptr %27, i32 0, i32 2
  store ptr null, ptr %30, align 8, !tbaa !21
  %31 = getelementptr inbounds nuw %struct.option, ptr %27, i32 0, i32 3
  store ptr @cmd_commit_tree.buffer, ptr %31, align 8, !tbaa !22
  %32 = getelementptr inbounds nuw %struct.option, ptr %27, i32 0, i32 4
  store ptr @.str.2, ptr %32, align 8, !tbaa !23
  %33 = getelementptr inbounds nuw %struct.option, ptr %27, i32 0, i32 5
  store ptr @.str.3, ptr %33, align 8, !tbaa !24
  %34 = getelementptr inbounds nuw %struct.option, ptr %27, i32 0, i32 6
  store i32 4, ptr %34, align 8, !tbaa !25
  %35 = getelementptr i8, ptr %27, i64 44
  call void @llvm.memset.p0.i64(ptr align 4 %35, i8 0, i64 4, i1 false)
  %36 = getelementptr inbounds nuw %struct.option, ptr %27, i32 0, i32 7
  store ptr @parse_message_arg_callback, ptr %36, align 8, !tbaa !26
  %37 = getelementptr inbounds nuw %struct.option, ptr %27, i32 0, i32 8
  store i64 0, ptr %37, align 8, !tbaa !27
  %38 = getelementptr inbounds nuw %struct.option, ptr %27, i32 0, i32 9
  store ptr null, ptr %38, align 8, !tbaa !28
  %39 = getelementptr inbounds nuw %struct.option, ptr %27, i32 0, i32 10
  store i64 0, ptr %39, align 8, !tbaa !29
  %40 = getelementptr inbounds nuw %struct.option, ptr %27, i32 0, i32 11
  store ptr null, ptr %40, align 8, !tbaa !30
  %41 = getelementptr inbounds %struct.option, ptr %12, i64 2
  %42 = getelementptr inbounds nuw %struct.option, ptr %41, i32 0, i32 0
  store i32 13, ptr %42, align 8, !tbaa !17
  %43 = getelementptr inbounds nuw %struct.option, ptr %41, i32 0, i32 1
  store i32 70, ptr %43, align 4, !tbaa !20
  %44 = getelementptr inbounds nuw %struct.option, ptr %41, i32 0, i32 2
  store ptr null, ptr %44, align 8, !tbaa !21
  %45 = getelementptr inbounds nuw %struct.option, ptr %41, i32 0, i32 3
  store ptr @cmd_commit_tree.buffer, ptr %45, align 8, !tbaa !22
  %46 = getelementptr inbounds nuw %struct.option, ptr %41, i32 0, i32 4
  store ptr @.str.4, ptr %46, align 8, !tbaa !23
  %47 = getelementptr inbounds nuw %struct.option, ptr %41, i32 0, i32 5
  store ptr @.str.5, ptr %47, align 8, !tbaa !24
  %48 = getelementptr inbounds nuw %struct.option, ptr %41, i32 0, i32 6
  store i32 4, ptr %48, align 8, !tbaa !25
  %49 = getelementptr i8, ptr %41, i64 44
  call void @llvm.memset.p0.i64(ptr align 4 %49, i8 0, i64 4, i1 false)
  %50 = getelementptr inbounds nuw %struct.option, ptr %41, i32 0, i32 7
  store ptr @parse_file_arg_callback, ptr %50, align 8, !tbaa !26
  %51 = getelementptr inbounds nuw %struct.option, ptr %41, i32 0, i32 8
  store i64 0, ptr %51, align 8, !tbaa !27
  %52 = getelementptr inbounds nuw %struct.option, ptr %41, i32 0, i32 9
  store ptr null, ptr %52, align 8, !tbaa !28
  %53 = getelementptr inbounds nuw %struct.option, ptr %41, i32 0, i32 10
  store i64 0, ptr %53, align 8, !tbaa !29
  %54 = getelementptr inbounds nuw %struct.option, ptr %41, i32 0, i32 11
  store ptr null, ptr %54, align 8, !tbaa !30
  %55 = getelementptr inbounds %struct.option, ptr %12, i64 3
  %56 = getelementptr inbounds nuw %struct.option, ptr %55, i32 0, i32 0
  store i32 10, ptr %56, align 8, !tbaa !17
  %57 = getelementptr inbounds nuw %struct.option, ptr %55, i32 0, i32 1
  store i32 83, ptr %57, align 4, !tbaa !20
  %58 = getelementptr inbounds nuw %struct.option, ptr %55, i32 0, i32 2
  store ptr @.str.6, ptr %58, align 8, !tbaa !21
  %59 = getelementptr inbounds nuw %struct.option, ptr %55, i32 0, i32 3
  store ptr @sign_commit, ptr %59, align 8, !tbaa !22
  %60 = getelementptr inbounds nuw %struct.option, ptr %55, i32 0, i32 4
  store ptr @.str.7, ptr %60, align 8, !tbaa !23
  %61 = getelementptr inbounds nuw %struct.option, ptr %55, i32 0, i32 5
  store ptr @.str.8, ptr %61, align 8, !tbaa !24
  %62 = getelementptr inbounds nuw %struct.option, ptr %55, i32 0, i32 6
  store i32 1, ptr %62, align 8, !tbaa !25
  %63 = getelementptr i8, ptr %55, i64 44
  call void @llvm.memset.p0.i64(ptr align 4 %63, i8 0, i64 4, i1 false)
  %64 = getelementptr inbounds nuw %struct.option, ptr %55, i32 0, i32 7
  store ptr null, ptr %64, align 8, !tbaa !26
  %65 = getelementptr inbounds nuw %struct.option, ptr %55, i32 0, i32 8
  store i64 ptrtoint (ptr @.str.9 to i64), ptr %65, align 8, !tbaa !27
  %66 = getelementptr inbounds nuw %struct.option, ptr %55, i32 0, i32 9
  store ptr null, ptr %66, align 8, !tbaa !28
  %67 = getelementptr inbounds nuw %struct.option, ptr %55, i32 0, i32 10
  store i64 0, ptr %67, align 8, !tbaa !29
  %68 = getelementptr inbounds nuw %struct.option, ptr %55, i32 0, i32 11
  store ptr null, ptr %68, align 8, !tbaa !30
  %69 = getelementptr inbounds %struct.option, ptr %12, i64 4
  call void @llvm.memset.p0.i64(ptr align 8 %69, i8 0, i64 88, i1 false)
  %70 = getelementptr inbounds nuw %struct.option, ptr %69, i32 0, i32 0
  store i32 0, ptr %70, align 8, !tbaa !17
  call void @llvm.lifetime.start.p0(i64 4, ptr %13) #8
  call void @git_config(ptr noundef @git_default_config, ptr noundef null)
  %71 = load i32, ptr %5, align 4, !tbaa !4
  %72 = load ptr, ptr %6, align 8, !tbaa !8
  %73 = getelementptr inbounds [5 x %struct.option], ptr %12, i64 0, i64 0
  call void @show_usage_with_options_if_asked(i32 noundef %71, ptr noundef %72, ptr noundef @commit_tree_usage, ptr noundef %73)
  %74 = load i32, ptr %5, align 4, !tbaa !4
  %75 = load ptr, ptr %6, align 8, !tbaa !8
  %76 = load ptr, ptr %7, align 8, !tbaa !11
  %77 = getelementptr inbounds [5 x %struct.option], ptr %12, i64 0, i64 0
  %78 = call i32 @parse_options(i32 noundef %74, ptr noundef %75, ptr noundef %76, ptr noundef %77, ptr noundef @commit_tree_usage, i32 noundef 0)
  store i32 %78, ptr %5, align 4, !tbaa !4
  %79 = load i32, ptr %5, align 4, !tbaa !4
  %80 = icmp ne i32 %79, 1
  br i1 %80, label %81, label %83

81:                                               ; preds = %4
  %82 = call ptr @_(ptr noundef @.str.10)
  call void (ptr, ...) @die(ptr noundef %82) #9
  unreachable

83:                                               ; preds = %4
  %84 = load ptr, ptr @the_repository, align 8, !tbaa !13
  %85 = load ptr, ptr %6, align 8, !tbaa !8
  %86 = getelementptr inbounds ptr, ptr %85, i64 0
  %87 = load ptr, ptr %86, align 8, !tbaa !11
  %88 = call i32 @repo_get_oid_tree(ptr noundef %84, ptr noundef %87, ptr noundef %10)
  %89 = icmp ne i32 %88, 0
  br i1 %89, label %90, label %95

90:                                               ; preds = %83
  %91 = call ptr @_(ptr noundef @.str.11)
  %92 = load ptr, ptr %6, align 8, !tbaa !8
  %93 = getelementptr inbounds ptr, ptr %92, i64 0
  %94 = load ptr, ptr %93, align 8, !tbaa !11
  call void (ptr, ...) @die(ptr noundef %91, ptr noundef %94) #9
  unreachable

95:                                               ; preds = %83
  %96 = load i64, ptr getelementptr inbounds nuw (%struct.strbuf, ptr @cmd_commit_tree.buffer, i32 0, i32 1), align 8, !tbaa !31
  %97 = icmp ne i64 %96, 0
  br i1 %97, label %104, label %98

98:                                               ; preds = %95
  %99 = call i64 @strbuf_read(ptr noundef @cmd_commit_tree.buffer, i32 noundef 0, i64 noundef 0)
  %100 = icmp slt i64 %99, 0
  br i1 %100, label %101, label %103

101:                                              ; preds = %98
  %102 = call ptr @_(ptr noundef @.str.12)
  call void (ptr, ...) @die_errno(ptr noundef %102) #9
  unreachable

103:                                              ; preds = %98
  br label %104

104:                                              ; preds = %103, %95
  %105 = load ptr, ptr getelementptr inbounds nuw (%struct.strbuf, ptr @cmd_commit_tree.buffer, i32 0, i32 2), align 8, !tbaa !33
  %106 = load i64, ptr getelementptr inbounds nuw (%struct.strbuf, ptr @cmd_commit_tree.buffer, i32 0, i32 1), align 8, !tbaa !31
  %107 = load ptr, ptr %9, align 8, !tbaa !15
  %108 = load ptr, ptr @sign_commit, align 8, !tbaa !11
  %109 = call i32 @commit_tree(ptr noundef %105, i64 noundef %106, ptr noundef %10, ptr noundef %107, ptr noundef %11, ptr noundef null, ptr noundef %108)
  %110 = icmp ne i32 %109, 0
  br i1 %110, label %111, label %112

111:                                              ; preds = %104
  store i32 1, ptr %13, align 4, !tbaa !4
  br label %115

112:                                              ; preds = %104
  %113 = call ptr @oid_to_hex(ptr noundef %11)
  %114 = call i32 (ptr, ...) @printf(ptr noundef @.str.13, ptr noundef %113)
  store i32 0, ptr %13, align 4, !tbaa !4
  br label %115

115:                                              ; preds = %112, %111
  %116 = load ptr, ptr %9, align 8, !tbaa !15
  call void @free_commit_list(ptr noundef %116)
  call void @strbuf_release(ptr noundef @cmd_commit_tree.buffer)
  %117 = load i32, ptr %13, align 4, !tbaa !4
  call void @llvm.lifetime.end.p0(i64 4, ptr %13) #8
  call void @llvm.lifetime.end.p0(i64 440, ptr %12) #8
  call void @llvm.lifetime.end.p0(i64 36, ptr %11) #8
  call void @llvm.lifetime.end.p0(i64 36, ptr %10) #8
  call void @llvm.lifetime.end.p0(i64 8, ptr %9) #8
  ret i32 %117
}