; Function Attrs: nounwind uwtable
define dso_local range(i32 0, 2) i32 @cmd_commit_tree(i32 noundef %0, ptr noundef %1, ptr noundef %2, ptr noundef readnone captures(none) %3) local_unnamed_addr #0 {
  %5 = alloca ptr, align 8
  %6 = alloca %struct.object_id, align 4
  %7 = alloca %struct.object_id, align 4
  %8 = alloca [5 x %struct.option], align 16
  call void @llvm.lifetime.start.p0(i64 8, ptr nonnull %5) #9
  store ptr null, ptr %5, align 8, !tbaa !4
  call void @llvm.lifetime.start.p0(i64 36, ptr nonnull %6) #9
  call void @llvm.lifetime.start.p0(i64 36, ptr nonnull %7) #9
  call void @llvm.lifetime.start.p0(i64 440, ptr nonnull %8) #9
  store i32 13, ptr %8, align 16, !tbaa !9
  %9 = getelementptr inbounds nuw i8, ptr %8, i64 4
  store i32 112, ptr %9, align 4, !tbaa !14
  %10 = getelementptr inbounds nuw i8, ptr %8, i64 8
  store ptr null, ptr %10, align 8, !tbaa !15
  %11 = getelementptr inbounds nuw i8, ptr %8, i64 16
  store ptr %5, ptr %11, align 16, !tbaa !16
  %12 = getelementptr inbounds nuw i8, ptr %8, i64 24
  store ptr @.str, ptr %12, align 8, !tbaa !17
  %13 = getelementptr inbounds nuw i8, ptr %8, i64 32
  store ptr @.str.1, ptr %13, align 16, !tbaa !18
  %14 = getelementptr inbounds nuw i8, ptr %8, i64 40
  store i32 4, ptr %14, align 8, !tbaa !19
  %15 = getelementptr inbounds nuw i8, ptr %8, i64 44
  store i32 0, ptr %15, align 4
  %16 = getelementptr inbounds nuw i8, ptr %8, i64 48
  store ptr @parse_parent_arg_callback, ptr %16, align 16, !tbaa !20
  %17 = getelementptr inbounds nuw i8, ptr %8, i64 56
  %18 = getelementptr inbounds nuw i8, ptr %8, i64 88
  call void @llvm.memset.p0.i64(ptr noundef nonnull align 8 dereferenceable(32) %17, i8 0, i64 32, i1 false)
  store i32 13, ptr %18, align 8, !tbaa !9
  %19 = getelementptr inbounds nuw i8, ptr %8, i64 92
  store i32 109, ptr %19, align 4, !tbaa !14
  %20 = getelementptr inbounds nuw i8, ptr %8, i64 96
  store ptr null, ptr %20, align 16, !tbaa !15
  %21 = getelementptr inbounds nuw i8, ptr %8, i64 104
  store ptr @cmd_commit_tree.buffer, ptr %21, align 8, !tbaa !16
  %22 = getelementptr inbounds nuw i8, ptr %8, i64 112
  store ptr @.str.2, ptr %22, align 16, !tbaa !17
  %23 = getelementptr inbounds nuw i8, ptr %8, i64 120
  store ptr @.str.3, ptr %23, align 8, !tbaa !18
  %24 = getelementptr inbounds nuw i8, ptr %8, i64 128
  store i32 4, ptr %24, align 16, !tbaa !19
  %25 = getelementptr inbounds nuw i8, ptr %8, i64 132
  store i32 0, ptr %25, align 4
  %26 = getelementptr inbounds nuw i8, ptr %8, i64 136
  store ptr @parse_message_arg_callback, ptr %26, align 8, !tbaa !20
  %27 = getelementptr inbounds nuw i8, ptr %8, i64 144
  %28 = getelementptr inbounds nuw i8, ptr %8, i64 176
  call void @llvm.memset.p0.i64(ptr noundef nonnull align 16 dereferenceable(32) %27, i8 0, i64 32, i1 false)
  store i32 13, ptr %28, align 16, !tbaa !9
  %29 = getelementptr inbounds nuw i8, ptr %8, i64 180
  store i32 70, ptr %29, align 4, !tbaa !14
  %30 = getelementptr inbounds nuw i8, ptr %8, i64 184
  store ptr null, ptr %30, align 8, !tbaa !15
  %31 = getelementptr inbounds nuw i8, ptr %8, i64 192
  store ptr @cmd_commit_tree.buffer, ptr %31, align 16, !tbaa !16
  %32 = getelementptr inbounds nuw i8, ptr %8, i64 200
  store ptr @.str.4, ptr %32, align 8, !tbaa !17
  %33 = getelementptr inbounds nuw i8, ptr %8, i64 208
  store ptr @.str.5, ptr %33, align 16, !tbaa !18
  %34 = getelementptr inbounds nuw i8, ptr %8, i64 216
  store i32 4, ptr %34, align 8, !tbaa !19
  %35 = getelementptr inbounds nuw i8, ptr %8, i64 220
  store i32 0, ptr %35, align 4
  %36 = getelementptr inbounds nuw i8, ptr %8, i64 224
  store ptr @parse_file_arg_callback, ptr %36, align 16, !tbaa !20
  %37 = getelementptr inbounds nuw i8, ptr %8, i64 232
  %38 = getelementptr inbounds nuw i8, ptr %8, i64 264
  call void @llvm.memset.p0.i64(ptr noundef nonnull align 8 dereferenceable(32) %37, i8 0, i64 32, i1 false)
  store i32 10, ptr %38, align 8, !tbaa !9
  %39 = getelementptr inbounds nuw i8, ptr %8, i64 268
  store i32 83, ptr %39, align 4, !tbaa !14
  %40 = getelementptr inbounds nuw i8, ptr %8, i64 272
  store ptr @.str.6, ptr %40, align 16, !tbaa !15
  %41 = getelementptr inbounds nuw i8, ptr %8, i64 280
  store ptr @sign_commit, ptr %41, align 8, !tbaa !16
  %42 = getelementptr inbounds nuw i8, ptr %8, i64 288
  store ptr @.str.7, ptr %42, align 16, !tbaa !17
  %43 = getelementptr inbounds nuw i8, ptr %8, i64 296
  store ptr @.str.8, ptr %43, align 8, !tbaa !18
  %44 = getelementptr inbounds nuw i8, ptr %8, i64 304
  store i32 1, ptr %44, align 16, !tbaa !19
  %45 = getelementptr inbounds nuw i8, ptr %8, i64 308
  store i32 0, ptr %45, align 4
  %46 = getelementptr inbounds nuw i8, ptr %8, i64 312
  store ptr null, ptr %46, align 8, !tbaa !20
  %47 = getelementptr inbounds nuw i8, ptr %8, i64 320
  store i64 ptrtoint (ptr @.str.9 to i64), ptr %47, align 16, !tbaa !21
  %48 = getelementptr inbounds nuw i8, ptr %8, i64 328
  call void @llvm.memset.p0.i64(ptr noundef nonnull align 8 dereferenceable(112) %48, i8 0, i64 112, i1 false)
  %49 = load ptr, ptr @the_repository, align 8, !tbaa !22
  call void @repo_config(ptr noundef %49, ptr noundef nonnull @git_default_config, ptr noundef null) #9
  call void @show_usage_with_options_if_asked(i32 noundef %0, ptr noundef %1, ptr noundef nonnull @commit_tree_usage, ptr noundef nonnull %8) #9
  %50 = call i32 @parse_options(i32 noundef %0, ptr noundef %1, ptr noundef %2, ptr noundef nonnull %8, ptr noundef nonnull @commit_tree_usage, i32 noundef 0) #9
  %.not = icmp eq i32 %50, 1
  br i1 %.not, label %53, label %51

51:                                               ; preds = %4
  %52 = call fastcc ptr @_(ptr noundef nonnull @.str.10)
  call void (ptr, ...) @die(ptr noundef %52) #10
  unreachable

53:                                               ; preds = %4
  %54 = load ptr, ptr @the_repository, align 8, !tbaa !22
  %55 = load ptr, ptr %1, align 8, !tbaa !24
  %56 = call i32 @repo_get_oid_tree(ptr noundef %54, ptr noundef %55, ptr noundef nonnull %6) #9
  %.not8 = icmp eq i32 %56, 0
  br i1 %.not8, label %60, label %57

57:                                               ; preds = %53
  %58 = call fastcc ptr @_(ptr noundef nonnull @.str.11)
  %59 = load ptr, ptr %1, align 8, !tbaa !24
  call void (ptr, ...) @die(ptr noundef %58, ptr noundef %59) #10
  unreachable

60:                                               ; preds = %53
  %61 = load i64, ptr getelementptr inbounds nuw (i8, ptr @cmd_commit_tree.buffer, i64 8), align 8, !tbaa !25
  %.not9 = icmp eq i64 %61, 0
  br i1 %.not9, label %62, label %67

62:                                               ; preds = %60
  %63 = call i64 @strbuf_read(ptr noundef nonnull @cmd_commit_tree.buffer, i32 noundef 0, i64 noundef 0) #9
  %64 = icmp slt i64 %63, 0
  br i1 %64, label %65, label %._crit_edge

._crit_edge:                                      ; preds = %62
  %.pre = load i64, ptr getelementptr inbounds nuw (i8, ptr @cmd_commit_tree.buffer, i64 8), align 8, !tbaa !25
  br label %67

65:                                               ; preds = %62
  %66 = call fastcc ptr @_(ptr noundef nonnull @.str.12)
  call void (ptr, ...) @die_errno(ptr noundef %66) #10
  unreachable

67:                                               ; preds = %._crit_edge, %60
  %68 = phi i64 [ %.pre, %._crit_edge ], [ %61, %60 ]
  %69 = load ptr, ptr getelementptr inbounds nuw (i8, ptr @cmd_commit_tree.buffer, i64 16), align 8, !tbaa !27
  %70 = load ptr, ptr %5, align 8, !tbaa !4
  %71 = load ptr, ptr @sign_commit, align 8, !tbaa !24
  %72 = call i32 @commit_tree(ptr noundef %69, i64 noundef %68, ptr noundef nonnull %6, ptr noundef %70, ptr noundef nonnull %7, ptr noundef null, ptr noundef %71) #9
  %.not10 = icmp eq i32 %72, 0
  br i1 %.not10, label %73, label %75

73:                                               ; preds = %67
  %74 = call ptr @oid_to_hex(ptr noundef nonnull %7) #9
  %puts = call i32 @puts(ptr nonnull dereferenceable(1) %74)
  br label %75

75:                                               ; preds = %67, %73
  %.0 = phi i32 [ 0, %73 ], [ 1, %67 ]
  %76 = load ptr, ptr %5, align 8, !tbaa !4
  call void @free_commit_list(ptr noundef %76) #9
  call void @strbuf_release(ptr noundef nonnull @cmd_commit_tree.buffer) #9
  call void @llvm.lifetime.end.p0(i64 440, ptr nonnull %8) #9
  call void @llvm.lifetime.end.p0(i64 36, ptr nonnull %7) #9
  call void @llvm.lifetime.end.p0(i64 36, ptr nonnull %6) #9
  call void @llvm.lifetime.end.p0(i64 8, ptr nonnull %5) #9
  ret i32 %.0
}